target datalayout = "e-m:e-p270:32:32-p271:32:32-p272:64:64-i64:64-i128:128-f80:128-n8:16:32:64-S128"
target triple = "x86_64-pc-linux-gnu"

%struct.IDAMemRec = type { ptr, double, ptr, ptr, i32, double, double, ptr, i32, i32, ptr, ptr, i32, i32, i32, ptr, ptr, i32, i32, double, double, ptr, i32, i32, i32, i32, ptr, ptr, i32, ptr, ptr, ptr, i32, double, i32, i32, double, ptr, ptr, ptr, i32, ptr, ptr, i32, i32, i32, double, ptr, ptr, ptr, [6 x ptr], [6 x double], [6 x double], [6 x double], [6 x double], [6 x double], ptr, ptr, ptr, ptr, ptr, ptr, ptr, ptr, ptr, ptr, ptr, ptr, ptr, ptr, ptr, ptr, ptr, [6 x ptr], ptr, ptr, ptr, ptr, [6 x ptr], ptr, ptr, ptr, ptr, ptr, ptr, ptr, ptr, ptr, ptr, ptr, ptr, ptr, ptr, ptr, ptr, [6 x ptr], ptr, ptr, ptr, ptr, ptr, double, ptr, ptr, i32, i32, i32, i32, i32, i32, i32, i32, double, double, double, i32, double, i32, i32, i32, i32, i32, double, double, double, double, double, double, double, double, double, double, double, double, double, double, double, double, double, i32, i32, i32, i32, i64, double, double, double, double, double, double, double, double, double, i64, i64, i64, i64, i64, i64, i64, i64, i64, i64, i64, i64, i64, i64, i64, i64, i64, i64, i64, i64, i64, i64, i64, i64, i64, i64, double, i32, i32, i32, i32, i32, i32, i32, i32, i32, i32, i32, i32, i32, ptr, i32, ptr, i32, ptr, i32, ptr, ptr, ptr, ptr, ptr, ptr, i32, i32, ptr, ptr, ptr, ptr, ptr, ptr, ptr, double, i32, i32, ptr, i32, ptr, ptr, double, double, double, ptr, ptr, ptr, double, double, i32, i32, i64, ptr, i32, ptr, [5 x double], ptr, ptr, i32, ptr, i32 }
%struct.IDAadjMemRec = type { double, double, i32, i32, double, i32, double, ptr, i32, ptr, i32, ptr, ptr, i32, i64, i64, ptr, i64, i32, ptr, ptr, ptr, ptr, i32, i32, i32, i32, i32, [6 x ptr], [6 x ptr], [6 x double], ptr, ptr, ptr, ptr }
%struct.IDABMemRec = type { i32, double, ptr, i32, i32, ptr, ptr, ptr, ptr, ptr, ptr, ptr, ptr, ptr, double, ptr, ptr, ptr }
%struct.IDABBDPrecDataRecB = type { ptr, ptr }

@.str = private unnamed_addr constant [118 x i8] c"generated/home/dtcxzyw/WorkSpace/Projects/compilers/llvm-opt-benchmark/bench/sundials/sundials/src/idas/idas_bbdpre.c\00", align 1
@.str.1 = private unnamed_addr constant [27 x i8] c"Integrator memory is NULL.\00", align 1
@.str.4 = private unnamed_addr constant [25 x i8] c"A memory request failed.\00", align 1
@__func__.IDABBDPrecInitB = private unnamed_addr constant [16 x i8] c"IDABBDPrecInitB\00", align 1
@.str.7 = private unnamed_addr constant [51 x i8] c"Illegal attempt to call before calling IDAAdjInit.\00", align 1
@.str.8 = private unnamed_addr constant [25 x i8] c"Illegal value for which.\00", align 1

; Function Attrs: nounwind uwtable
define i32 @IDABBDPrecInitB(ptr noundef %0, i32 noundef %1, i64 noundef %2, i64 noundef %3, i64 noundef %4, i64 noundef %5, i64 noundef %6, double noundef %7, ptr noundef %8, ptr noundef %9) #0 {
  %11 = alloca i32, align 4
  %12 = alloca ptr, align 8
  %13 = alloca i32, align 4
  %14 = alloca i64, align 8
  %15 = alloca i64, align 8
  %16 = alloca i64, align 8
  %17 = alloca i64, align 8
  %18 = alloca i64, align 8
  %19 = alloca double, align 8
  %20 = alloca ptr, align 8
  %21 = alloca ptr, align 8
  %22 = alloca ptr, align 8
  %23 = alloca ptr, align 8
  %24 = alloca ptr, align 8
  %25 = alloca ptr, align 8
  %26 = alloca ptr, align 8
  %27 = alloca i32, align 4
  %28 = alloca i32, align 4
  store ptr %0, ptr %12, align 8, !tbaa !3
  store i32 %1, ptr %13, align 4, !tbaa !52
  store i64 %2, ptr %14, align 8, !tbaa !7
  store i64 %3, ptr %15, align 8, !tbaa !7
  store i64 %4, ptr %16, align 8, !tbaa !7
  store i64 %5, ptr %17, align 8, !tbaa !7
  store i64 %6, ptr %18, align 8, !tbaa !7
  store double %7, ptr %19, align 8, !tbaa !9
  store ptr %8, ptr %20, align 8, !tbaa !3
  store ptr %9, ptr %21, align 8, !tbaa !3
  call void @llvm.lifetime.start.p0(i64 8, ptr %22) #6
  call void @llvm.lifetime.start.p0(i64 8, ptr %23) #6
  call void @llvm.lifetime.start.p0(i64 8, ptr %24) #6
  call void @llvm.lifetime.start.p0(i64 8, ptr %25) #6
  call void @llvm.lifetime.start.p0(i64 8, ptr %26) #6
  call void @llvm.lifetime.start.p0(i64 4, ptr %27) #6
  %29 = load ptr, ptr %12, align 8, !tbaa !3
  %30 = icmp eq ptr %29, null
  br i1 %30, label %31, label %32

31:                                               ; preds = %10
  call void (ptr, i32, i32, ptr, ptr, ptr, ...) @IDAProcessError(ptr noundef null, i32 noundef -1, i32 noundef 747, ptr noundef @__func__.IDABBDPrecInitB, ptr noundef @.str, ptr noundef @.str.1)
  store i32 -1, ptr %11, align 4
  store i32 1, ptr %28, align 4
  br label %103

32:                                               ; preds = %10
  %33 = load ptr, ptr %12, align 8, !tbaa !3
  store ptr %33, ptr %22, align 8, !tbaa !11
  %34 = load ptr, ptr %22, align 8, !tbaa !11
  %35 = getelementptr inbounds nuw %struct.IDAMemRec, ptr %34, i32 0, i32 240
  %36 = load i32, ptr %35, align 8, !tbaa !76
  %37 = icmp eq i32 %36, 0
  br i1 %37, label %38, label %40

38:                                               ; preds = %32
  %39 = load ptr, ptr %22, align 8, !tbaa !11
  call void (ptr, i32, i32, ptr, ptr, ptr, ...) @IDAProcessError(ptr noundef %39, i32 noundef -101, i32 noundef 756, ptr noundef @__func__.IDABBDPrecInitB, ptr noundef @.str, ptr noundef @.str.7)
  store i32 -101, ptr %11, align 4
  store i32 1, ptr %28, align 4
  br label %103

40:                                               ; preds = %32
  %41 = load ptr, ptr %22, align 8, !tbaa !11
  %42 = getelementptr inbounds nuw %struct.IDAMemRec, ptr %41, i32 0, i32 239
  %43 = load ptr, ptr %42, align 8, !tbaa !77
  store ptr %43, ptr %23, align 8, !tbaa !78
  %44 = load i32, ptr %13, align 4, !tbaa !52
  %45 = load ptr, ptr %23, align 8, !tbaa !78
  %46 = getelementptr inbounds nuw %struct.IDAadjMemRec, ptr %45, i32 0, i32 8
  %47 = load i32, ptr %46, align 8, !tbaa !79
  %48 = icmp sge i32 %44, %47
  br i1 %48, label %49, label %51

49:                                               ; preds = %40
  %50 = load ptr, ptr %22, align 8, !tbaa !11
  call void (ptr, i32, i32, ptr, ptr, ptr, ...) @IDAProcessError(ptr noundef %50, i32 noundef -3, i32 noundef 765, ptr noundef @__func__.IDABBDPrecInitB, ptr noundef @.str, ptr noundef @.str.8)
  store i32 -3, ptr %11, align 4
  store i32 1, ptr %28, align 4
  br label %103

51:                                               ; preds = %40
  %52 = load ptr, ptr %23, align 8, !tbaa !78
  %53 = getelementptr inbounds nuw %struct.IDAadjMemRec, ptr %52, i32 0, i32 7
  %54 = load ptr, ptr %53, align 8, !tbaa !84
  store ptr %54, ptr %24, align 8, !tbaa !85
  br label %55

55:                                               ; preds = %65, %51
  %56 = load ptr, ptr %24, align 8, !tbaa !85
  %57 = icmp ne ptr %56, null
  br i1 %57, label %58, label %69

58:                                               ; preds = %55
  %59 = load i32, ptr %13, align 4, !tbaa !52
  %60 = load ptr, ptr %24, align 8, !tbaa !85
  %61 = getelementptr inbounds nuw %struct.IDABMemRec, ptr %60, i32 0, i32 0
  %62 = load i32, ptr %61, align 8, !tbaa !86
  %63 = icmp eq i32 %59, %62
  br i1 %63, label %64, label %65

64:                                               ; preds = %58
  br label %69

65:                                               ; preds = %58
  %66 = load ptr, ptr %24, align 8, !tbaa !85
  %67 = getelementptr inbounds nuw %struct.IDABMemRec, ptr %66, i32 0, i32 17
  %68 = load ptr, ptr %67, align 8, !tbaa !88
  store ptr %68, ptr %24, align 8, !tbaa !85
  br label %55

69:                                               ; preds = %64, %55
  %70 = load ptr, ptr %24, align 8, !tbaa !85
  %71 = getelementptr inbounds nuw %struct.IDABMemRec, ptr %70, i32 0, i32 2
  %72 = load ptr, ptr %71, align 8, !tbaa !89
  store ptr %72, ptr %26, align 8, !tbaa !3
  %73 = load ptr, ptr %26, align 8, !tbaa !3
  %74 = load i64, ptr %14, align 8, !tbaa !7
  %75 = load i64, ptr %15, align 8, !tbaa !7
  %76 = load i64, ptr %16, align 8, !tbaa !7
  %77 = load i64, ptr %17, align 8, !tbaa !7
  %78 = load i64, ptr %18, align 8, !tbaa !7
  %79 = load double, ptr %19, align 8, !tbaa !9
  %80 = call i32 @IDABBDPrecInit(ptr noundef %73, i64 noundef %74, i64 noundef %75, i64 noundef %76, i64 noundef %77, i64 noundef %78, double noundef %79, ptr noundef @IDAAglocal, ptr noundef @IDAAgcomm)
  store i32 %80, ptr %27, align 4, !tbaa !52
  %81 = load i32, ptr %27, align 4, !tbaa !52
  %82 = icmp ne i32 %81, 0
  br i1 %82, label %83, label %85

83:                                               ; preds = %69
  %84 = load i32, ptr %27, align 4, !tbaa !52
  store i32 %84, ptr %11, align 4
  store i32 1, ptr %28, align 4
  br label %103

85:                                               ; preds = %69
  store ptr null, ptr %25, align 8, !tbaa !90
  %86 = call noalias ptr @malloc(i64 noundef 16) #7
  store ptr %86, ptr %25, align 8, !tbaa !90
  %87 = load ptr, ptr %25, align 8, !tbaa !90
  %88 = icmp eq ptr %87, null
  br i1 %88, label %89, label %91

89:                                               ; preds = %85
  %90 = load ptr, ptr %22, align 8, !tbaa !11
  call void (ptr, i32, i32, ptr, ptr, ptr, ...) @IDAProcessError(ptr noundef %90, i32 noundef -4, i32 noundef 792, ptr noundef @__func__.IDABBDPrecInitB, ptr noundef @.str, ptr noundef @.str.4)
  store i32 -4, ptr %11, align 4
  store i32 1, ptr %28, align 4
  br label %103

91:                                               ; preds = %85
  %92 = load ptr, ptr %20, align 8, !tbaa !3
  %93 = load ptr, ptr %25, align 8, !tbaa !90
  %94 = getelementptr inbounds nuw %struct.IDABBDPrecDataRecB, ptr %93, i32 0, i32 0
  store ptr %92, ptr %94, align 8, !tbaa !92
  %95 = load ptr, ptr %21, align 8, !tbaa !3
  %96 = load ptr, ptr %25, align 8, !tbaa !90
  %97 = getelementptr inbounds nuw %struct.IDABBDPrecDataRecB, ptr %96, i32 0, i32 1
  store ptr %95, ptr %97, align 8, !tbaa !94
  %98 = load ptr, ptr %25, align 8, !tbaa !90
  %99 = load ptr, ptr %24, align 8, !tbaa !85
  %100 = getelementptr inbounds nuw %struct.IDABMemRec, ptr %99, i32 0, i32 12
  store ptr %98, ptr %100, align 8, !tbaa !95
  %101 = load ptr, ptr %24, align 8, !tbaa !85
  %102 = getelementptr inbounds nuw %struct.IDABMemRec, ptr %101, i32 0, i32 13
  store ptr @IDABBDPrecFreeB, ptr %102, align 8, !tbaa !96
  store i32 0, ptr %11, align 4
  store i32 1, ptr %28, align 4
  br label %103

103:                                              ; preds = %91, %89, %83, %49, %38, %31
  call void @llvm.lifetime.end.p0(i64 4, ptr %27) #6
  call void @llvm.lifetime.end.p0(i64 8, ptr %26) #6
  call void @llvm.lifetime.end.p0(i64 8, ptr %25) #6
  call void @llvm.lifetime.end.p0(i64 8, ptr %24) #6
  call void @llvm.lifetime.end.p0(i64 8, ptr %23) #6
  call void @llvm.lifetime.end.p0(i64 8, ptr %22) #6
  %104 = load i32, ptr %11, align 4
  ret i32 %104
}