; Function Attrs: nounwind uwtable
define i32 @IDABBDPrecInitB(ptr noundef %0, i32 noundef %1, i64 noundef %2, i64 noundef %3, i64 noundef %4, i64 noundef %5, i64 noundef %6, double noundef %7, ptr noundef %8, ptr noundef %9) local_unnamed_addr #0 {
  %11 = icmp eq ptr %0, null
  br i1 %11, label %12, label %13

12:                                               ; preds = %10
  tail call void (ptr, i32, i32, ptr, ptr, ptr, ...) @IDAProcessError(ptr noundef null, i32 noundef -1, i32 noundef 747, ptr noundef nonnull @__func__.IDABBDPrecInitB, ptr noundef nonnull @.str, ptr noundef nonnull @.str.1) #10
  br label %40

13:                                               ; preds = %10
  %14 = getelementptr inbounds nuw i8, ptr %0, i64 2120
  %15 = load i32, ptr %14, align 8, !tbaa !71
  %16 = icmp eq i32 %15, 0
  br i1 %16, label %17, label %18

17:                                               ; preds = %13
  tail call void (ptr, i32, i32, ptr, ptr, ptr, ...) @IDAProcessError(ptr noundef nonnull %0, i32 noundef -101, i32 noundef 756, ptr noundef nonnull @__func__.IDABBDPrecInitB, ptr noundef nonnull @.str, ptr noundef nonnull @.str.7) #10
  br label %40

18:                                               ; preds = %13
  %19 = getelementptr inbounds nuw i8, ptr %0, i64 2112
  %20 = load ptr, ptr %19, align 8, !tbaa !72
  %21 = getelementptr inbounds nuw i8, ptr %20, i64 56
  %22 = load i32, ptr %21, align 8, !tbaa !73
  %.not = icmp slt i32 %1, %22
  br i1 %.not, label %24, label %23

23:                                               ; preds = %18
  tail call void (ptr, i32, i32, ptr, ptr, ptr, ...) @IDAProcessError(ptr noundef nonnull %0, i32 noundef -3, i32 noundef 765, ptr noundef nonnull @__func__.IDABBDPrecInitB, ptr noundef nonnull @.str, ptr noundef nonnull @.str.8) #10
  br label %40

24:                                               ; preds = %18
  %25 = getelementptr inbounds nuw i8, ptr %20, i64 48
  br label %.lr.ph

.lr.ph:                                           ; preds = %.lr.ph, %24
  %.032.sink.in = phi ptr [ %28, %.lr.ph ], [ %25, %24 ]
  %.032.sink = load ptr, ptr %.032.sink.in, align 8, !tbaa !78, !nonnull !79, !noundef !79
  %26 = load i32, ptr %.032.sink, align 8, !tbaa !80
  %27 = icmp eq i32 %1, %26
  %28 = getelementptr inbounds nuw i8, ptr %.032.sink, i64 128
  br i1 %27, label %._crit_edge, label %.lr.ph

._crit_edge:                                      ; preds = %.lr.ph
  %29 = getelementptr inbounds nuw i8, ptr %.032.sink, i64 16
  %30 = load ptr, ptr %29, align 8, !tbaa !83
  %31 = tail call i32 @IDABBDPrecInit(ptr noundef %30, i64 noundef %2, i64 noundef %3, i64 noundef %4, i64 noundef %5, i64 noundef %6, double noundef %7, ptr noundef nonnull @IDAAglocal, ptr noundef nonnull @IDAAgcomm)
  %.not38 = icmp eq i32 %31, 0
  br i1 %.not38, label %32, label %40

32:                                               ; preds = %._crit_edge
  %33 = tail call noalias dereferenceable_or_null(16) ptr @malloc(i64 noundef 16) #11
  %34 = icmp eq ptr %33, null
  br i1 %34, label %35, label %36

35:                                               ; preds = %32
  tail call void (ptr, i32, i32, ptr, ptr, ptr, ...) @IDAProcessError(ptr noundef nonnull %0, i32 noundef -4, i32 noundef 792, ptr noundef nonnull @__func__.IDABBDPrecInitB, ptr noundef nonnull @.str, ptr noundef nonnull @.str.4) #10
  br label %40

36:                                               ; preds = %32
  store ptr %8, ptr %33, align 8, !tbaa !84
  %37 = getelementptr inbounds nuw i8, ptr %33, i64 8
  store ptr %9, ptr %37, align 8, !tbaa !86
  %38 = getelementptr inbounds nuw i8, ptr %.032.sink, i64 88
  store ptr %33, ptr %38, align 8, !tbaa !87
  %39 = getelementptr inbounds nuw i8, ptr %.032.sink, i64 96
  store ptr @IDABBDPrecFreeB, ptr %39, align 8, !tbaa !88
  br label %40

40:                                               ; preds = %._crit_edge, %36, %35, %23, %17, %12
  %.0 = phi i32 [ -1, %12 ], [ -101, %17 ], [ -3, %23 ], [ -4, %35 ], [ 0, %36 ], [ %31, %._crit_edge ]
  ret i32 %.0
}